; ModuleID = 'bench/openjdk/original/awt_Font.ll'
source_filename = "bench/openjdk/original/awt_Font.ll"
target datalayout = "e-m:e-p270:32:32-p271:32:32-p272:64:64-i64:64-i128:128-f80:128-n8:16:32:64-S128"
target triple = "x86_64-pc-linux-gnu"

; Function Attrs: mustprogress nofree norecurse nosync nounwind willreturn memory(none) uwtable
define void @Java_java_awt_Font_initIDs(ptr nocapture noundef readnone %0, ptr nocapture noundef readnone %1) local_unnamed_addr #0 {
  ret void
}

; Function Attrs: mustprogress nofree norecurse nosync nounwind willreturn memory(none) uwtable
define void @Java_sun_awt_FontDescriptor_initIDs(ptr nocapture noundef readnone %0, ptr nocapture noundef readnone %1) local_unnamed_addr #0 {
  ret void
}

; Function Attrs: mustprogress nofree norecurse nosync nounwind willreturn memory(none) uwtable
define void @Java_sun_awt_PlatformFont_initIDs(ptr nocapture noundef readnone %0, ptr nocapture noundef readnone %1) local_unnamed_addr #0 {
  ret void
}


!llvm.module.flags = !{!0, !1, !2, !3, !4, !5}

!0 = !{i32 7, !"Dwarf Version", i32 5}
!1 = !{i32 2, !"Debug Info Version", i32 3}
!2 = !{i32 1, !"wchar_size", i32 4}
!3 = !{i32 8, !"PIC Level", i32 2}
!4 = !{i32 7, !"uwtable", i32 2}
!5 = !{i32 7, !"frame-pointer", i32 2}
